target datalayout = "e-m:e-p270:32:32-p271:32:32-p272:64:64-i64:64-i128:128-f80:128-n8:16:32:64-S128"
target triple = "x86_64-pc-linux-gnu"

%struct.Aig_Man_t_ = type { ptr, ptr, ptr, ptr, ptr, ptr, ptr, %struct.Aig_Obj_t_, i32, i32, i32, i32, i32, i32, [7 x i32], i32, ptr, i32, ptr, i32, ptr, i32, i32, i32, ptr, i32, i32, i32, i32, i32, ptr, ptr, i32, ptr, ptr, i32, ptr, ptr, i32, i32, i32, ptr, ptr, ptr, ptr, ptr, ptr, ptr, ptr, ptr, ptr, ptr, ptr, ptr, ptr, i32, ptr, ptr, ptr, ptr, i32, i64, i64, i64, ptr, ptr }
%struct.Aig_Obj_t_ = type { %union.anon, ptr, ptr, i64, i32, i32, %union.anon.0 }
%union.anon = type { ptr }
%union.anon.0 = type { ptr }
%struct.Vec_Ptr_t_ = type { i32, i32, ptr }
%struct.Raig_Man_t_ = type { ptr, i32, i32, i32, i32, i32, i32, i32, ptr, ptr, ptr, ptr, ptr, ptr, ptr, ptr, i32, i32, i32, i32 }
%struct.Sec_MtrStatus_t_ = type { i32, i32, i32, i32, i32, i32, i32 }
%struct.timespec = type { i64, i64 }

@.str = private unnamed_addr constant [45 x i8] c"Miter is trivially satisfiable (output %d).\0A\00", align 1
@.str.1 = private unnamed_addr constant [35 x i8] c"Miter is trivially unsatisfiable.\0A\00", align 1
@.str.2 = private unnamed_addr constant [43 x i8] c"Frame %4d out of %4d and timeout %3d sec. \00", align 1
@.str.3 = private unnamed_addr constant [18 x i8] c"Time = %7.2f sec\0D\00", align 1
@.str.4 = private unnamed_addr constant [52 x i8] c"Miter is satisfiable after simulation (output %d).\0A\00", align 1
@.str.5 = private unnamed_addr constant [61 x i8] c"No bug detected after %d frames with time limit %d seconds.\0A\00", align 1
@.str.6 = private unnamed_addr constant [56 x i8] c"Maxcut = %8d.  AigMem = %7.2f MB.  SimMem = %7.2f MB.  \00", align 1
@.str.7 = private unnamed_addr constant [5 x i8] c"%s =\00", align 1
@.str.8 = private unnamed_addr constant [11 x i8] c"Total time\00", align 1
@.str.9 = private unnamed_addr constant [11 x i8] c"%9.2f sec\0A\00", align 1

; Function Attrs: nounwind uwtable
define internal ptr @Vec_PtrEntry(ptr noundef %0, i32 noundef %1) #0 {
  %3 = alloca ptr, align 8
  %4 = alloca i32, align 4
  store ptr %0, ptr %3, align 8
  store i32 %1, ptr %4, align 4
  %5 = load ptr, ptr %3, align 8
  %6 = getelementptr inbounds %struct.Vec_Ptr_t_, ptr %5, i32 0, i32 2
  %7 = load ptr, ptr %6, align 8
  %8 = load i32, ptr %4, align 4
  %9 = sext i32 %8 to i64
  %10 = getelementptr inbounds ptr, ptr %7, i64 %9
  %11 = load ptr, ptr %10, align 8
  ret ptr %11
}

; Function Attrs: nounwind uwtable
define internal i32 @Saig_ManPoNum(ptr noundef %0) #0 {
  %2 = alloca ptr, align 8
  store ptr %0, ptr %2, align 8
  %3 = load ptr, ptr %2, align 8
  %4 = getelementptr inbounds %struct.Aig_Man_t_, ptr %3, i32 0, i32 10
  %5 = load i32, ptr %4, align 8
  ret i32 %5
}

; Function Attrs: nounwind uwtable
define i32 @Raig_ManFindPo(ptr noundef %0, i32 noundef %1) #0 {
  %3 = alloca i32, align 4
  %4 = alloca ptr, align 8
  %5 = alloca i32, align 4
  %6 = alloca ptr, align 8
  %7 = alloca i32, align 4
  store ptr %0, ptr %4, align 8
  store i32 %1, ptr %5, align 4
  store i32 0, ptr %7, align 4
  br label %8

8:                                                ; preds = %30, %2
  %9 = load i32, ptr %7, align 4
  %10 = load ptr, ptr %4, align 8
  %11 = call i32 @Saig_ManPoNum(ptr noundef %10)
  %12 = icmp slt i32 %9, %11
  br i1 %12, label %13, label %19

13:                                               ; preds = %8
  %14 = load ptr, ptr %4, align 8
  %15 = getelementptr inbounds %struct.Aig_Man_t_, ptr %14, i32 0, i32 3
  %16 = load ptr, ptr %15, align 8
  %17 = load i32, ptr %7, align 4
  %18 = call ptr @Vec_PtrEntry(ptr noundef %16, i32 noundef %17)
  store ptr %18, ptr %6, align 8
  br label %19

19:                                               ; preds = %13, %8
  %20 = phi i1 [ false, %8 ], [ true, %13 ]
  br i1 %20, label %21, label %33

21:                                               ; preds = %19
  %22 = load ptr, ptr %6, align 8
  %23 = getelementptr inbounds %struct.Aig_Obj_t_, ptr %22, i32 0, i32 6
  %24 = load i32, ptr %23, align 8
  %25 = load i32, ptr %5, align 4
  %26 = icmp eq i32 %24, %25
  br i1 %26, label %27, label %29

27:                                               ; preds = %21
  %28 = load i32, ptr %7, align 4
  store i32 %28, ptr %3, align 4
  br label %34

29:                                               ; preds = %21
  br label %30

30:                                               ; preds = %29
  %31 = load i32, ptr %7, align 4
  %32 = add nsw i32 %31, 1
  store i32 %32, ptr %7, align 4
  br label %8, !llvm.loop !4

33:                                               ; preds = %19
  store i32 -1, ptr %3, align 4
  br label %34

34:                                               ; preds = %33, %27
  %35 = load i32, ptr %3, align 4
  ret i32 %35
}

; Function Attrs: nounwind uwtable
define internal i64 @Abc_Clock() #0 {
  %1 = alloca i64, align 8
  %2 = alloca %struct.timespec, align 8
  %3 = alloca i64, align 8
  %4 = call i32 @clock_gettime(i32 noundef 1, ptr noundef %2) #13
  %5 = icmp slt i32 %4, 0
  br i1 %5, label %6, label %7

6:                                                ; preds = %0
  store i64 -1, ptr %1, align 8
  br label %18

7:                                                ; preds = %0
  %8 = getelementptr inbounds %struct.timespec, ptr %2, i32 0, i32 0
  %9 = load i64, ptr %8, align 8
  %10 = mul nsw i64 %9, 1000000
  store i64 %10, ptr %3, align 8
  %11 = getelementptr inbounds %struct.timespec, ptr %2, i32 0, i32 1
  %12 = load i64, ptr %11, align 8
  %13 = mul nsw i64 %12, 1000000
  %14 = sdiv i64 %13, 1000000000
  %15 = load i64, ptr %3, align 8
  %16 = add nsw i64 %15, %14
  store i64 %16, ptr %3, align 8
  %17 = load i64, ptr %3, align 8
  store i64 %17, ptr %1, align 8
  br label %18

18:                                               ; preds = %7, %6
  %19 = load i64, ptr %1, align 8
  ret i64 %19
}

; Function Attrs: nounwind uwtable
define i32 @Raig_ManSimulate(ptr noundef %0, i32 noundef %1, i32 noundef %2, i32 noundef %3, i32 noundef %4, i32 noundef %5) #0 {
  %7 = alloca i32, align 4
  %8 = alloca ptr, align 8
  %9 = alloca i32, align 4
  %10 = alloca i32, align 4
  %11 = alloca i32, align 4
  %12 = alloca i32, align 4
  %13 = alloca i32, align 4
  %14 = alloca ptr, align 8
  %15 = alloca %struct.Sec_MtrStatus_t_, align 4
  %16 = alloca i32, align 4
  %17 = alloca i32, align 4
  %18 = alloca i32, align 4
  %19 = alloca i64, align 8
  %20 = alloca i64, align 8
  %21 = alloca %struct.Sec_MtrStatus_t_, align 4
  %22 = alloca i32, align 4
  store ptr %0, ptr %8, align 8
  store i32 %1, ptr %9, align 4
  store i32 %2, ptr %10, align 4
  store i32 %3, ptr %11, align 4
  store i32 %4, ptr %12, align 4
  store i32 %5, ptr %13, align 4
  store i32 0, ptr %18, align 4
  %23 = call i64 @Abc_Clock()
  store i64 %23, ptr %20, align 8
  %24 = load ptr, ptr %8, align 8
  call void @Sec_MiterStatus(ptr dead_on_unwind writable sret(%struct.Sec_MtrStatus_t_) align 4 %21, ptr noundef %24)
  call void @llvm.memcpy.p0.p0.i64(ptr align 4 %15, ptr align 4 %21, i64 28, i1 false)
  %25 = getelementptr inbounds %struct.Sec_MtrStatus_t_, ptr %15, i32 0, i32 4
  %26 = load i32, ptr %25, align 4
  %27 = icmp sgt i32 %26, 0
  br i1 %27, label %28, label %32

28:                                               ; preds = %6
  %29 = getelementptr inbounds %struct.Sec_MtrStatus_t_, ptr %15, i32 0, i32 6
  %30 = load i32, ptr %29, align 4
  %31 = call i32 (ptr, ...) @printf(ptr noundef @.str, i32 noundef %30)
  store i32 1, ptr %7, align 4
  br label %152

32:                                               ; preds = %6
  %33 = getelementptr inbounds %struct.Sec_MtrStatus_t_, ptr %15, i32 0, i32 5
  %34 = load i32, ptr %33, align 4
  %35 = icmp eq i32 %34, 0
  br i1 %35, label %36, label %38

36:                                               ; preds = %32
  %37 = call i32 (ptr, ...) @printf(ptr noundef @.str.1)
  store i32 0, ptr %7, align 4
  br label %152

38:                                               ; preds = %32
  %39 = call i32 @Aig_ManRandom(i32 noundef 1)
  %40 = load ptr, ptr %8, align 8
  %41 = call ptr @Raig_ManCreate(ptr noundef %40)
  store ptr %41, ptr %14, align 8
  %42 = load i32, ptr %9, align 4
  %43 = load ptr, ptr %14, align 8
  %44 = getelementptr inbounds %struct.Raig_Man_t_, ptr %43, i32 0, i32 1
  store i32 %42, ptr %44, align 8
  store i32 0, ptr %16, align 4
  br label %45

45:                                               ; preds = %113, %38
  %46 = load i32, ptr %16, align 4
  %47 = load i32, ptr %10, align 4
  %48 = icmp slt i32 %46, %47
  br i1 %48, label %49, label %116

49:                                               ; preds = %45
  %50 = call i64 @Abc_Clock()
  store i64 %50, ptr %19, align 8
  %51 = load ptr, ptr %14, align 8
  %52 = load i32, ptr %12, align 4
  %53 = load i32, ptr %16, align 4
  %54 = icmp eq i32 %53, 0
  %55 = zext i1 %54 to i32
  %56 = call i32 @Raig_ManSimulateRound(ptr noundef %51, i32 noundef %52, i32 noundef %55, ptr noundef %17)
  store i32 %56, ptr %18, align 4
  %57 = load i32, ptr %13, align 4
  %58 = icmp ne i32 %57, 0
  br i1 %58, label %59, label %73

59:                                               ; preds = %49
  %60 = load i32, ptr %16, align 4
  %61 = add nsw i32 %60, 1
  %62 = load i32, ptr %10, align 4
  %63 = load i32, ptr %11, align 4
  %64 = call i32 (ptr, ...) @printf(ptr noundef @.str.2, i32 noundef %61, i32 noundef %62, i32 noundef %63)
  %65 = call i64 @Abc_Clock()
  %66 = sitofp i64 %65 to double
  %67 = load i64, ptr %20, align 8
  %68 = sitofp i64 %67 to double
  %69 = fneg double %68
  %70 = call double @llvm.fmuladd.f64(double 1.000000e+00, double %66, double %69)
  %71 = fdiv double %70, 1.000000e+06
  %72 = call i32 (ptr, ...) @printf(ptr noundef @.str.3, double noundef %71)
  br label %73

73:                                               ; preds = %59, %49
  %74 = load i32, ptr %18, align 4
  %75 = icmp sgt i32 %74, 0
  br i1 %75, label %76, label %99

76:                                               ; preds = %73
  %77 = load ptr, ptr %14, align 8
  %78 = getelementptr inbounds %struct.Raig_Man_t_, ptr %77, i32 0, i32 0
  %79 = load ptr, ptr %78, align 8
  %80 = load i32, ptr %18, align 4
  %81 = call i32 @Raig_ManFindPo(ptr noundef %79, i32 noundef %80)
  store i32 %81, ptr %22, align 4
  %82 = load ptr, ptr %8, align 8
  %83 = load i32, ptr %16, align 4
  %84 = load i32, ptr %22, align 4
  %85 = load i32, ptr %9, align 4
  %86 = load i32, ptr %17, align 4
  %87 = load ptr, ptr %14, align 8
  %88 = getelementptr inbounds %struct.Raig_Man_t_, ptr %87, i32 0, i32 10
  %89 = load ptr, ptr %88, align 8
  %90 = call ptr @Raig_ManGenerateCounter(ptr noundef %82, i32 noundef %83, i32 noundef %84, i32 noundef %85, i32 noundef %86, ptr noundef %89)
  %91 = load ptr, ptr %8, align 8
  %92 = getelementptr inbounds %struct.Aig_Man_t_, ptr %91, i32 0, i32 51
  store ptr %90, ptr %92, align 8
  %93 = load i32, ptr %13, align 4
  %94 = icmp ne i32 %93, 0
  br i1 %94, label %95, label %98

95:                                               ; preds = %76
  %96 = load i32, ptr %22, align 4
  %97 = call i32 (ptr, ...) @printf(ptr noundef @.str.4, i32 noundef %96)
  br label %98

98:                                               ; preds = %95, %76
  br label %116

99:                                               ; preds = %73
  %100 = call i64 @Abc_Clock()
  %101 = load i64, ptr %19, align 8
  %102 = sub nsw i64 %100, %101
  %103 = sdiv i64 %102, 1000000
  %104 = load i32, ptr %11, align 4
  %105 = sext i32 %104 to i64
  %106 = icmp sge i64 %103, %105
  br i1 %106, label %107, label %112

107:                                              ; preds = %99
  %108 = load i32, ptr %16, align 4
  %109 = add nsw i32 %108, 1
  %110 = load i32, ptr %11, align 4
  %111 = call i32 (ptr, ...) @printf(ptr noundef @.str.5, i32 noundef %109, i32 noundef %110)
  br label %116

112:                                              ; preds = %99
  br label %113

113:                                              ; preds = %112
  %114 = load i32, ptr %16, align 4
  %115 = add nsw i32 %114, 1
  store i32 %115, ptr %16, align 4
  br label %45, !llvm.loop !26

116:                                              ; preds = %107, %98, %45
  %117 = load i32, ptr %13, align 4
  %118 = icmp ne i32 %117, 0
  br i1 %118, label %119, label %147

119:                                              ; preds = %116
  %120 = load ptr, ptr %14, align 8
  %121 = getelementptr inbounds %struct.Raig_Man_t_, ptr %120, i32 0, i32 18
  %122 = load i32, ptr %121, align 8
  %123 = load ptr, ptr %14, align 8
  %124 = getelementptr inbounds %struct.Raig_Man_t_, ptr %123, i32 0, i32 7
  %125 = load i32, ptr %124, align 8
  %126 = mul nsw i32 %125, 16
  %127 = sitofp i32 %126 to double
  %128 = fmul double 1.000000e+00, %127
  %129 = fdiv double %128, 0x4130000000000000
  %130 = load ptr, ptr %14, align 8
  %131 = getelementptr inbounds %struct.Raig_Man_t_, ptr %130, i32 0, i32 18
  %132 = load i32, ptr %131, align 8
  %133 = mul nsw i32 %132, 4
  %134 = load i32, ptr %9, align 4
  %135 = add nsw i32 %134, 1
  %136 = mul nsw i32 %133, %135
  %137 = sitofp i32 %136 to double
  %138 = fmul double 1.000000e+00, %137
  %139 = fdiv double %138, 0x4130000000000000
  %140 = call i32 (ptr, ...) @printf(ptr noundef @.str.6, i32 noundef %122, double noundef %129, double noundef %139)
  call void (i32, ptr, ...) @Abc_Print(i32 noundef 1, ptr noundef @.str.7, ptr noundef @.str.8)
  %141 = call i64 @Abc_Clock()
  %142 = load i64, ptr %20, align 8
  %143 = sub nsw i64 %141, %142
  %144 = sitofp i64 %143 to double
  %145 = fmul double 1.000000e+00, %144
  %146 = fdiv double %145, 1.000000e+06
  call void (i32, ptr, ...) @Abc_Print(i32 noundef 1, ptr noundef @.str.9, double noundef %146)
  br label %147

147:                                              ; preds = %119, %116
  %148 = load ptr, ptr %14, align 8
  call void @Raig_ManDelete(ptr noundef %148)
  %149 = load i32, ptr %18, align 4
  %150 = icmp sgt i32 %149, 0
  %151 = zext i1 %150 to i32
  store i32 %151, ptr %7, align 4
  br label %152

152:                                              ; preds = %147, %36, %28
  %153 = load i32, ptr %7, align 4
  ret i32 %153
}