; Function Attrs: nounwind uwtable
define range(i32 0, 2) i32 @Raig_ManSimulate(ptr noundef %0, i32 noundef %1, i32 noundef %2, i32 noundef %3, i32 noundef %4, i32 noundef %5) local_unnamed_addr #1 {
  %7 = alloca %struct.timespec, align 8
  %8 = alloca %struct.timespec, align 8
  %9 = alloca %struct.timespec, align 8
  %10 = alloca %struct.timespec, align 8
  %11 = alloca %struct.timespec, align 8
  %12 = alloca i32, align 4
  %13 = alloca %struct.Sec_MtrStatus_t_, align 4
  call void @llvm.lifetime.start.p0(i64 16, ptr nonnull %11)
  %14 = call i32 @clock_gettime(i32 noundef 1, ptr noundef nonnull %11) #18
  %15 = icmp slt i32 %14, 0
  br i1 %15, label %Abc_Clock.exit, label %16

16:                                               ; preds = %6
  %17 = load i64, ptr %11, align 8
  %18 = mul nsw i64 %17, 1000000
  %19 = getelementptr inbounds nuw i8, ptr %11, i64 8
  %20 = load i64, ptr %19, align 8
  %21 = sdiv i64 %20, 1000
  %22 = add nsw i64 %21, %18
  br label %Abc_Clock.exit

Abc_Clock.exit:                                   ; preds = %6, %16
  %.0.i = phi i64 [ %22, %16 ], [ -1, %6 ]
  call void @llvm.lifetime.end.p0(i64 16, ptr nonnull %11)
  call void @Sec_MiterStatus(ptr dead_on_unwind nonnull writable sret(%struct.Sec_MtrStatus_t_) align 4 %13, ptr noundef %0) #18
  %.sroa.1.0..sroa_idx = getelementptr inbounds nuw i8, ptr %13, i64 16
  %.sroa.1.0.copyload = load i32, ptr %.sroa.1.0..sroa_idx, align 4
  %23 = icmp sgt i32 %.sroa.1.0.copyload, 0
  br i1 %23, label %24, label %26

24:                                               ; preds = %Abc_Clock.exit
  %.sroa.3.0..sroa_idx = getelementptr inbounds nuw i8, ptr %13, i64 24
  %.sroa.3.0.copyload = load i32, ptr %.sroa.3.0..sroa_idx, align 4
  %25 = call i32 (ptr, ...) @printf(ptr noundef nonnull dereferenceable(1) @.str, i32 noundef %.sroa.3.0.copyload)
  br label %129

26:                                               ; preds = %Abc_Clock.exit
  %.sroa.2.0..sroa_idx = getelementptr inbounds nuw i8, ptr %13, i64 20
  %.sroa.2.0.copyload = load i32, ptr %.sroa.2.0..sroa_idx, align 4
  %27 = icmp eq i32 %.sroa.2.0.copyload, 0
  br i1 %27, label %28, label %29

28:                                               ; preds = %26
  %puts = call i32 @puts(ptr nonnull dereferenceable(1) @str)
  br label %129

29:                                               ; preds = %26
  %30 = call i32 @Aig_ManRandom(i32 noundef 1) #18
  %31 = call ptr @Raig_ManCreate(ptr noundef %0)
  %32 = getelementptr inbounds nuw i8, ptr %31, i64 8
  store i32 %1, ptr %32, align 8
  %33 = icmp sgt i32 %2, 0
  br i1 %33, label %.lr.ph, label %.loopexit

.lr.ph:                                           ; preds = %29
  %34 = getelementptr inbounds nuw i8, ptr %10, i64 8
  %.not = icmp eq i32 %5, 0
  %35 = getelementptr inbounds nuw i8, ptr %9, i64 8
  %36 = sitofp i64 %.0.i to double
  %37 = getelementptr inbounds nuw i8, ptr %8, i64 8
  %38 = sext i32 %3 to i64
  br label %39

39:                                               ; preds = %.lr.ph, %100
  %.03869 = phi i32 [ 0, %.lr.ph ], [ %97, %100 ]
  call void @llvm.lifetime.start.p0(i64 16, ptr nonnull %10)
  %40 = call i32 @clock_gettime(i32 noundef 1, ptr noundef nonnull %10) #18
  %41 = icmp slt i32 %40, 0
  br i1 %41, label %Abc_Clock.exit46, label %42

42:                                               ; preds = %39
  %43 = load i64, ptr %10, align 8
  %.neg60 = mul i64 %43, -1000000
  %44 = load i64, ptr %34, align 8
  %.neg = sdiv i64 %44, -1000
  %.neg61 = add i64 %.neg, %.neg60
  br label %Abc_Clock.exit46

Abc_Clock.exit46:                                 ; preds = %39, %42
  %.0.i45.neg = phi i64 [ %.neg61, %42 ], [ 1, %39 ]
  call void @llvm.lifetime.end.p0(i64 16, ptr nonnull %10)
  %45 = icmp eq i32 %.03869, 0
  %46 = zext i1 %45 to i32
  %47 = call i32 @Raig_ManSimulateRound(ptr noundef %31, i32 noundef %4, i32 noundef %46, ptr noundef nonnull %12)
  br i1 %.not, label %63, label %48

48:                                               ; preds = %Abc_Clock.exit46
  %49 = add nuw nsw i32 %.03869, 1
  %50 = call i32 (ptr, ...) @printf(ptr noundef nonnull dereferenceable(1) @.str.2, i32 noundef %49, i32 noundef %2, i32 noundef %3)
  call void @llvm.lifetime.start.p0(i64 16, ptr nonnull %9)
  %51 = call i32 @clock_gettime(i32 noundef 1, ptr noundef nonnull %9) #18
  %52 = icmp slt i32 %51, 0
  br i1 %52, label %Abc_Clock.exit48, label %53

53:                                               ; preds = %48
  %54 = load i64, ptr %9, align 8
  %55 = mul nsw i64 %54, 1000000
  %56 = load i64, ptr %35, align 8
  %57 = sdiv i64 %56, 1000
  %58 = add nsw i64 %57, %55
  %59 = sitofp i64 %58 to double
  br label %Abc_Clock.exit48

Abc_Clock.exit48:                                 ; preds = %48, %53
  %.0.i47 = phi double [ %59, %53 ], [ -1.000000e+00, %48 ]
  call void @llvm.lifetime.end.p0(i64 16, ptr nonnull %9)
  %60 = fsub double %.0.i47, %36
  %61 = fdiv double %60, 1.000000e+06
  %62 = call i32 (ptr, ...) @printf(ptr noundef nonnull dereferenceable(1) @.str.3, double noundef %61)
  br label %63

63:                                               ; preds = %Abc_Clock.exit48, %Abc_Clock.exit46
  %64 = icmp sgt i32 %47, 0
  br i1 %64, label %65, label %86

65:                                               ; preds = %63
  %66 = load ptr, ptr %31, align 8
  %67 = getelementptr i8, ptr %66, i64 112
  %.val.i = load i32, ptr %67, align 8
  %68 = icmp sgt i32 %.val.i, 0
  br i1 %68, label %.lr.ph.i, label %Raig_ManFindPo.exit

.lr.ph.i:                                         ; preds = %65
  %69 = getelementptr inbounds nuw i8, ptr %66, i64 24
  %70 = load ptr, ptr %69, align 8
  %71 = getelementptr i8, ptr %70, i64 8
  %.val9.i = load ptr, ptr %71, align 8
  %wide.trip.count.i = zext nneg i32 %.val.i to i64
  br label %72

72:                                               ; preds = %78, %.lr.ph.i
  %indvars.iv.i = phi i64 [ 0, %.lr.ph.i ], [ %indvars.iv.next.i, %78 ]
  %73 = getelementptr inbounds nuw ptr, ptr %.val9.i, i64 %indvars.iv.i
  %74 = load ptr, ptr %73, align 8
  %75 = getelementptr inbounds nuw i8, ptr %74, i64 40
  %76 = load i32, ptr %75, align 8
  %77 = icmp eq i32 %76, %47
  br i1 %77, label %.critedge.loopexit.split.loop.exit14.i, label %78

78:                                               ; preds = %72
  %indvars.iv.next.i = add nuw nsw i64 %indvars.iv.i, 1
  %exitcond.not.i = icmp eq i64 %indvars.iv.next.i, %wide.trip.count.i
  br i1 %exitcond.not.i, label %Raig_ManFindPo.exit, label %72, !llvm.loop !4

.critedge.loopexit.split.loop.exit14.i:           ; preds = %72
  %79 = trunc nuw nsw i64 %indvars.iv.i to i32
  br label %Raig_ManFindPo.exit

Raig_ManFindPo.exit:                              ; preds = %78, %65, %.critedge.loopexit.split.loop.exit14.i
  %.08.i = phi i32 [ -1, %65 ], [ %79, %.critedge.loopexit.split.loop.exit14.i ], [ -1, %78 ]
  %80 = load i32, ptr %12, align 4
  %81 = getelementptr inbounds nuw i8, ptr %31, i64 56
  %82 = load ptr, ptr %81, align 8
  %83 = call ptr @Raig_ManGenerateCounter(ptr noundef %0, i32 noundef %.03869, i32 noundef %.08.i, i32 noundef %1, i32 noundef %80, ptr noundef %82)
  %84 = getelementptr inbounds nuw i8, ptr %0, i64 408
  store ptr %83, ptr %84, align 8
  br i1 %.not, label %.thread, label %.thread56

.thread56:                                        ; preds = %Raig_ManFindPo.exit
  %85 = call i32 (ptr, ...) @printf(ptr noundef nonnull dereferenceable(1) @.str.4, i32 noundef %.08.i)
  br label %101

86:                                               ; preds = %63
  call void @llvm.lifetime.start.p0(i64 16, ptr nonnull %8)
  %87 = call i32 @clock_gettime(i32 noundef 1, ptr noundef nonnull %8) #18
  %88 = icmp slt i32 %87, 0
  br i1 %88, label %Abc_Clock.exit50, label %89

89:                                               ; preds = %86
  %90 = load i64, ptr %8, align 8
  %91 = mul nsw i64 %90, 1000000
  %92 = load i64, ptr %37, align 8
  %93 = sdiv i64 %92, 1000
  %94 = add nsw i64 %93, %91
  br label %Abc_Clock.exit50

Abc_Clock.exit50:                                 ; preds = %86, %89
  %.0.i49 = phi i64 [ %94, %89 ], [ -1, %86 ]
  call void @llvm.lifetime.end.p0(i64 16, ptr nonnull %8)
  %95 = add i64 %.0.i49, %.0.i45.neg
  %96 = sdiv i64 %95, 1000000
  %.not43 = icmp slt i64 %96, %38
  %97 = add nuw nsw i32 %.03869, 1
  br i1 %.not43, label %100, label %98

98:                                               ; preds = %Abc_Clock.exit50
  %99 = call i32 (ptr, ...) @printf(ptr noundef nonnull dereferenceable(1) @.str.5, i32 noundef %97, i32 noundef %3)
  br label %.loopexit

100:                                              ; preds = %Abc_Clock.exit50
  %exitcond.not = icmp eq i32 %97, %2
  br i1 %exitcond.not, label %.loopexit, label %39, !llvm.loop !27

.loopexit:                                        ; preds = %100, %29, %98
  %.1 = phi i32 [ %47, %98 ], [ 0, %29 ], [ %47, %100 ]
  %.not44 = icmp eq i32 %5, 0
  br i1 %.not44, label %.thread, label %101

101:                                              ; preds = %.thread56, %.loopexit
  %.159 = phi i32 [ %47, %.thread56 ], [ %.1, %.loopexit ]
  %102 = getelementptr inbounds nuw i8, ptr %31, i64 112
  %103 = load i32, ptr %102, align 8
  %104 = getelementptr inbounds nuw i8, ptr %31, i64 32
  %105 = load i32, ptr %104, align 8
  %106 = shl nsw i32 %105, 4
  %107 = sitofp i32 %106 to double
  %108 = fmul double %107, 0x3EB0000000000000
  %109 = shl i32 %1, 2
  %110 = add i32 %109, 4
  %111 = mul i32 %110, %103
  %112 = sitofp i32 %111 to double
  %113 = fmul double %112, 0x3EB0000000000000
  %114 = call i32 (ptr, ...) @printf(ptr noundef nonnull dereferenceable(1) @.str.6, i32 noundef %103, double noundef %108, double noundef %113)
  call void (i32, ptr, ...) @Abc_Print(i32 poison, ptr noundef nonnull @.str.7, ptr noundef nonnull @.str.8)
  call void @llvm.lifetime.start.p0(i64 16, ptr nonnull %7)
  %115 = call i32 @clock_gettime(i32 noundef 1, ptr noundef nonnull %7) #18
  %116 = icmp slt i32 %115, 0
  br i1 %116, label %Abc_Clock.exit52, label %117

117:                                              ; preds = %101
  %118 = load i64, ptr %7, align 8
  %119 = mul nsw i64 %118, 1000000
  %120 = getelementptr inbounds nuw i8, ptr %7, i64 8
  %121 = load i64, ptr %120, align 8
  %122 = sdiv i64 %121, 1000
  %123 = add nsw i64 %122, %119
  br label %Abc_Clock.exit52

Abc_Clock.exit52:                                 ; preds = %101, %117
  %.0.i51 = phi i64 [ %123, %117 ], [ -1, %101 ]
  call void @llvm.lifetime.end.p0(i64 16, ptr nonnull %7)
  %124 = sub nsw i64 %.0.i51, %.0.i
  %125 = sitofp i64 %124 to double
  %126 = fdiv double %125, 1.000000e+06
  call void (i32, ptr, ...) @Abc_Print(i32 poison, ptr noundef nonnull @.str.9, double noundef %126)
  br label %.thread

.thread:                                          ; preds = %Raig_ManFindPo.exit, %Abc_Clock.exit52, %.loopexit
  %.155 = phi i32 [ %.159, %Abc_Clock.exit52 ], [ %.1, %.loopexit ], [ %47, %Raig_ManFindPo.exit ]
  call void @Raig_ManDelete(ptr noundef %31)
  %127 = icmp sgt i32 %.155, 0
  %128 = zext i1 %127 to i32
  br label %129

129:                                              ; preds = %.thread, %28, %24
  %.0 = phi i32 [ 1, %24 ], [ 0, %28 ], [ %128, %.thread ]
  ret i32 %.0
}